; Function Attrs: mustprogress nounwind willreturn uwtable
define void @If_ManCacheRecord(ptr noundef captures(none) %0, i32 noundef %1, i32 noundef %2, i32 noundef %3, i32 noundef %4) local_unnamed_addr #0 {
  %6 = getelementptr inbounds nuw i8, ptr %0, i64 2104
  %7 = load ptr, ptr %6, align 8, !tbaa !3
  %8 = icmp eq ptr %7, null
  br i1 %8, label %.thread, label %14

.thread:                                          ; preds = %5
  %9 = tail call noalias dereferenceable_or_null(16) ptr @malloc(i64 noundef 16) #11
  %10 = getelementptr inbounds nuw i8, ptr %9, i64 4
  store i32 0, ptr %10, align 4, !tbaa !24
  store i32 10000, ptr %9, align 8, !tbaa !27
  %11 = tail call noalias dereferenceable_or_null(40000) ptr @malloc(i64 noundef 40000) #11
  %12 = getelementptr inbounds nuw i8, ptr %9, i64 8
  store ptr %11, ptr %12, align 8, !tbaa !28
  store ptr %9, ptr %6, align 8, !tbaa !3
  %spec.select41 = tail call i32 @llvm.smax.i32(i32 %1, i32 %2)
  %spec.select1842 = tail call i32 @llvm.smin.i32(i32 %1, i32 %2)
  %13 = getelementptr inbounds nuw i8, ptr %9, i64 4
  br label %.Vec_IntGrow.exit10_crit_edge.i

14:                                               ; preds = %5
  %.phi.trans.insert = getelementptr inbounds nuw i8, ptr %7, i64 4
  %.pre = load i32, ptr %.phi.trans.insert, align 4, !tbaa !24
  %.pre40 = load i32, ptr %7, align 8, !tbaa !27
  %spec.select = tail call i32 @llvm.smax.i32(i32 %1, i32 %2)
  %spec.select18 = tail call i32 @llvm.smin.i32(i32 %1, i32 %2)
  %15 = getelementptr inbounds nuw i8, ptr %7, i64 4
  %16 = icmp eq i32 %.pre, %.pre40
  br i1 %16, label %19, label %.Vec_IntGrow.exit10_crit_edge.i

.Vec_IntGrow.exit10_crit_edge.i:                  ; preds = %.thread, %14
  %17 = phi ptr [ %13, %.thread ], [ %15, %14 ]
  %spec.select1846 = phi i32 [ %spec.select1842, %.thread ], [ %spec.select18, %14 ]
  %spec.select44 = phi i32 [ %spec.select41, %.thread ], [ %spec.select, %14 ]
  %18 = phi ptr [ %9, %.thread ], [ %7, %14 ]
  %.phi.trans.insert.i = getelementptr inbounds nuw i8, ptr %18, i64 8
  %.pre.i = load ptr, ptr %.phi.trans.insert.i, align 8, !tbaa !28
  br label %Vec_IntPush.exit

19:                                               ; preds = %14
  %20 = icmp slt i32 %.pre40, 16
  br i1 %20, label %21, label %29

21:                                               ; preds = %19
  %22 = getelementptr inbounds nuw i8, ptr %7, i64 8
  %23 = load ptr, ptr %22, align 8, !tbaa !28
  %.not9.i.i = icmp eq ptr %23, null
  br i1 %.not9.i.i, label %26, label %24

24:                                               ; preds = %21
  %25 = tail call dereferenceable_or_null(64) ptr @realloc(ptr noundef nonnull %23, i64 noundef 64) #12
  br label %Vec_IntGrow.exit.i

26:                                               ; preds = %21
  %27 = tail call noalias dereferenceable_or_null(64) ptr @malloc(i64 noundef 64) #11
  br label %Vec_IntGrow.exit.i

Vec_IntGrow.exit.i:                               ; preds = %26, %24
  %28 = phi ptr [ %25, %24 ], [ %27, %26 ]
  store ptr %28, ptr %22, align 8, !tbaa !28
  store i32 16, ptr %7, align 8, !tbaa !27
  br label %Vec_IntPush.exit

29:                                               ; preds = %19
  %30 = shl nuw nsw i32 %.pre40, 1
  %31 = getelementptr inbounds nuw i8, ptr %7, i64 8
  %32 = load ptr, ptr %31, align 8, !tbaa !28
  %.not9.i9.i = icmp eq ptr %32, null
  %33 = zext nneg i32 %30 to i64
  %34 = shl nuw nsw i64 %33, 2
  br i1 %.not9.i9.i, label %37, label %35

35:                                               ; preds = %29
  %36 = tail call ptr @realloc(ptr noundef nonnull %32, i64 noundef %34) #12
  br label %39

37:                                               ; preds = %29
  %38 = tail call noalias ptr @malloc(i64 noundef %34) #11
  br label %39

39:                                               ; preds = %37, %35
  %40 = phi ptr [ %36, %35 ], [ %38, %37 ]
  store ptr %40, ptr %31, align 8, !tbaa !28
  store i32 %30, ptr %7, align 8, !tbaa !27
  br label %Vec_IntPush.exit

Vec_IntPush.exit:                                 ; preds = %.Vec_IntGrow.exit10_crit_edge.i, %Vec_IntGrow.exit.i, %39
  %41 = phi ptr [ %17, %.Vec_IntGrow.exit10_crit_edge.i ], [ %15, %39 ], [ %15, %Vec_IntGrow.exit.i ]
  %spec.select1845 = phi i32 [ %spec.select1846, %.Vec_IntGrow.exit10_crit_edge.i ], [ %spec.select18, %39 ], [ %spec.select18, %Vec_IntGrow.exit.i ]
  %spec.select43 = phi i32 [ %spec.select44, %.Vec_IntGrow.exit10_crit_edge.i ], [ %spec.select, %39 ], [ %spec.select, %Vec_IntGrow.exit.i ]
  %42 = phi ptr [ %.pre.i, %.Vec_IntGrow.exit10_crit_edge.i ], [ %40, %39 ], [ %28, %Vec_IntGrow.exit.i ]
  %43 = load i32, ptr %41, align 4, !tbaa !24
  %44 = add nsw i32 %43, 1
  store i32 %44, ptr %41, align 4, !tbaa !24
  %45 = sext i32 %43 to i64
  %46 = getelementptr inbounds i32, ptr %42, i64 %45
  store i32 %spec.select1845, ptr %46, align 4, !tbaa !29
  %47 = load ptr, ptr %6, align 8, !tbaa !3
  %48 = getelementptr inbounds nuw i8, ptr %47, i64 4
  %49 = load i32, ptr %48, align 4, !tbaa !24
  %50 = load i32, ptr %47, align 8, !tbaa !27
  %51 = icmp eq i32 %49, %50
  br i1 %51, label %52, label %.Vec_IntGrow.exit10_crit_edge.i19

.Vec_IntGrow.exit10_crit_edge.i19:                ; preds = %Vec_IntPush.exit
  %.phi.trans.insert.i20 = getelementptr inbounds nuw i8, ptr %47, i64 8
  %.pre.i21 = load ptr, ptr %.phi.trans.insert.i20, align 8, !tbaa !28
  br label %Vec_IntPush.exit25

52:                                               ; preds = %Vec_IntPush.exit
  %53 = icmp slt i32 %49, 16
  br i1 %53, label %54, label %62

54:                                               ; preds = %52
  %55 = getelementptr inbounds nuw i8, ptr %47, i64 8
  %56 = load ptr, ptr %55, align 8, !tbaa !28
  %.not9.i.i23 = icmp eq ptr %56, null
  br i1 %.not9.i.i23, label %59, label %57

57:                                               ; preds = %54
  %58 = tail call dereferenceable_or_null(64) ptr @realloc(ptr noundef nonnull %56, i64 noundef 64) #12
  br label %Vec_IntGrow.exit.i24

59:                                               ; preds = %54
  %60 = tail call noalias dereferenceable_or_null(64) ptr @malloc(i64 noundef 64) #11
  br label %Vec_IntGrow.exit.i24

Vec_IntGrow.exit.i24:                             ; preds = %59, %57
  %61 = phi ptr [ %58, %57 ], [ %60, %59 ]
  store ptr %61, ptr %55, align 8, !tbaa !28
  store i32 16, ptr %47, align 8, !tbaa !27
  br label %Vec_IntPush.exit25

62:                                               ; preds = %52
  %63 = shl nuw nsw i32 %49, 1
  %64 = getelementptr inbounds nuw i8, ptr %47, i64 8
  %65 = load ptr, ptr %64, align 8, !tbaa !28
  %.not9.i9.i22 = icmp eq ptr %65, null
  %66 = zext nneg i32 %63 to i64
  %67 = shl nuw nsw i64 %66, 2
  br i1 %.not9.i9.i22, label %70, label %68

68:                                               ; preds = %62
  %69 = tail call ptr @realloc(ptr noundef nonnull %65, i64 noundef %67) #12
  br label %72

70:                                               ; preds = %62
  %71 = tail call noalias ptr @malloc(i64 noundef %67) #11
  br label %72

72:                                               ; preds = %70, %68
  %73 = phi ptr [ %69, %68 ], [ %71, %70 ]
  store ptr %73, ptr %64, align 8, !tbaa !28
  store i32 %63, ptr %47, align 8, !tbaa !27
  br label %Vec_IntPush.exit25

Vec_IntPush.exit25:                               ; preds = %.Vec_IntGrow.exit10_crit_edge.i19, %Vec_IntGrow.exit.i24, %72
  %74 = phi ptr [ %.pre.i21, %.Vec_IntGrow.exit10_crit_edge.i19 ], [ %73, %72 ], [ %61, %Vec_IntGrow.exit.i24 ]
  %75 = load i32, ptr %48, align 4, !tbaa !24
  %76 = add nsw i32 %75, 1
  store i32 %76, ptr %48, align 4, !tbaa !24
  %77 = sext i32 %75 to i64
  %78 = getelementptr inbounds i32, ptr %74, i64 %77
  store i32 %spec.select43, ptr %78, align 4, !tbaa !29
  %79 = load ptr, ptr %6, align 8, !tbaa !3
  %80 = getelementptr inbounds nuw i8, ptr %79, i64 4
  %81 = load i32, ptr %80, align 4, !tbaa !24
  %82 = load i32, ptr %79, align 8, !tbaa !27
  %83 = icmp eq i32 %81, %82
  br i1 %83, label %84, label %.Vec_IntGrow.exit10_crit_edge.i26

.Vec_IntGrow.exit10_crit_edge.i26:                ; preds = %Vec_IntPush.exit25
  %.phi.trans.insert.i27 = getelementptr inbounds nuw i8, ptr %79, i64 8
  %.pre.i28 = load ptr, ptr %.phi.trans.insert.i27, align 8, !tbaa !28
  br label %Vec_IntPush.exit32

84:                                               ; preds = %Vec_IntPush.exit25
  %85 = icmp slt i32 %81, 16
  br i1 %85, label %86, label %94

86:                                               ; preds = %84
  %87 = getelementptr inbounds nuw i8, ptr %79, i64 8
  %88 = load ptr, ptr %87, align 8, !tbaa !28
  %.not9.i.i30 = icmp eq ptr %88, null
  br i1 %.not9.i.i30, label %91, label %89

89:                                               ; preds = %86
  %90 = tail call dereferenceable_or_null(64) ptr @realloc(ptr noundef nonnull %88, i64 noundef 64) #12
  br label %Vec_IntGrow.exit.i31

91:                                               ; preds = %86
  %92 = tail call noalias dereferenceable_or_null(64) ptr @malloc(i64 noundef 64) #11
  br label %Vec_IntGrow.exit.i31

Vec_IntGrow.exit.i31:                             ; preds = %91, %89
  %93 = phi ptr [ %90, %89 ], [ %92, %91 ]
  store ptr %93, ptr %87, align 8, !tbaa !28
  store i32 16, ptr %79, align 8, !tbaa !27
  br label %Vec_IntPush.exit32

94:                                               ; preds = %84
  %95 = shl nuw nsw i32 %81, 1
  %96 = getelementptr inbounds nuw i8, ptr %79, i64 8
  %97 = load ptr, ptr %96, align 8, !tbaa !28
  %.not9.i9.i29 = icmp eq ptr %97, null
  %98 = zext nneg i32 %95 to i64
  %99 = shl nuw nsw i64 %98, 2
  br i1 %.not9.i9.i29, label %102, label %100

100:                                              ; preds = %94
  %101 = tail call ptr @realloc(ptr noundef nonnull %97, i64 noundef %99) #12
  br label %104

102:                                              ; preds = %94
  %103 = tail call noalias ptr @malloc(i64 noundef %99) #11
  br label %104

104:                                              ; preds = %102, %100
  %105 = phi ptr [ %101, %100 ], [ %103, %102 ]
  store ptr %105, ptr %96, align 8, !tbaa !28
  store i32 %95, ptr %79, align 8, !tbaa !27
  br label %Vec_IntPush.exit32

Vec_IntPush.exit32:                               ; preds = %.Vec_IntGrow.exit10_crit_edge.i26, %Vec_IntGrow.exit.i31, %104
  %106 = phi ptr [ %.pre.i28, %.Vec_IntGrow.exit10_crit_edge.i26 ], [ %105, %104 ], [ %93, %Vec_IntGrow.exit.i31 ]
  %107 = load i32, ptr %80, align 4, !tbaa !24
  %108 = add nsw i32 %107, 1
  store i32 %108, ptr %80, align 4, !tbaa !24
  %109 = sext i32 %107 to i64
  %110 = getelementptr inbounds i32, ptr %106, i64 %109
  store i32 %3, ptr %110, align 4, !tbaa !29
  %111 = load ptr, ptr %6, align 8, !tbaa !3
  %112 = getelementptr inbounds nuw i8, ptr %111, i64 4
  %113 = load i32, ptr %112, align 4, !tbaa !24
  %114 = load i32, ptr %111, align 8, !tbaa !27
  %115 = icmp eq i32 %113, %114
  br i1 %115, label %116, label %.Vec_IntGrow.exit10_crit_edge.i33

.Vec_IntGrow.exit10_crit_edge.i33:                ; preds = %Vec_IntPush.exit32
  %.phi.trans.insert.i34 = getelementptr inbounds nuw i8, ptr %111, i64 8
  %.pre.i35 = load ptr, ptr %.phi.trans.insert.i34, align 8, !tbaa !28
  br label %Vec_IntPush.exit39

116:                                              ; preds = %Vec_IntPush.exit32
  %117 = icmp slt i32 %113, 16
  br i1 %117, label %118, label %126

118:                                              ; preds = %116
  %119 = getelementptr inbounds nuw i8, ptr %111, i64 8
  %120 = load ptr, ptr %119, align 8, !tbaa !28
  %.not9.i.i37 = icmp eq ptr %120, null
  br i1 %.not9.i.i37, label %123, label %121

121:                                              ; preds = %118
  %122 = tail call dereferenceable_or_null(64) ptr @realloc(ptr noundef nonnull %120, i64 noundef 64) #12
  br label %Vec_IntGrow.exit.i38

123:                                              ; preds = %118
  %124 = tail call noalias dereferenceable_or_null(64) ptr @malloc(i64 noundef 64) #11
  br label %Vec_IntGrow.exit.i38

Vec_IntGrow.exit.i38:                             ; preds = %123, %121
  %125 = phi ptr [ %122, %121 ], [ %124, %123 ]
  store ptr %125, ptr %119, align 8, !tbaa !28
  store i32 16, ptr %111, align 8, !tbaa !27
  br label %Vec_IntPush.exit39

126:                                              ; preds = %116
  %127 = shl nuw nsw i32 %113, 1
  %128 = getelementptr inbounds nuw i8, ptr %111, i64 8
  %129 = load ptr, ptr %128, align 8, !tbaa !28
  %.not9.i9.i36 = icmp eq ptr %129, null
  %130 = zext nneg i32 %127 to i64
  %131 = shl nuw nsw i64 %130, 2
  br i1 %.not9.i9.i36, label %134, label %132

132:                                              ; preds = %126
  %133 = tail call ptr @realloc(ptr noundef nonnull %129, i64 noundef %131) #12
  br label %136

134:                                              ; preds = %126
  %135 = tail call noalias ptr @malloc(i64 noundef %131) #11
  br label %136

136:                                              ; preds = %134, %132
  %137 = phi ptr [ %133, %132 ], [ %135, %134 ]
  store ptr %137, ptr %128, align 8, !tbaa !28
  store i32 %127, ptr %111, align 8, !tbaa !27
  br label %Vec_IntPush.exit39

Vec_IntPush.exit39:                               ; preds = %.Vec_IntGrow.exit10_crit_edge.i33, %Vec_IntGrow.exit.i38, %136
  %138 = phi ptr [ %.pre.i35, %.Vec_IntGrow.exit10_crit_edge.i33 ], [ %137, %136 ], [ %125, %Vec_IntGrow.exit.i38 ]
  %139 = load i32, ptr %112, align 4, !tbaa !24
  %140 = add nsw i32 %139, 1
  store i32 %140, ptr %112, align 4, !tbaa !24
  %141 = sext i32 %139 to i64
  %142 = getelementptr inbounds i32, ptr %138, i64 %141
  store i32 %4, ptr %142, align 4, !tbaa !29
  ret void
}